target datalayout = "e-m:e-p270:32:32-p271:32:32-p272:64:64-i64:64-i128:128-f80:128-n8:16:32:64-S128"
target triple = "x86_64-pc-linux-gnu"

%class.LayoutRawBlock = type <{ ptr, ptr, i32, i32, i32, i32, i32, i8, [3 x i8] }>

; Function Attrs: mustprogress nounwind uwtable
define hidden void @_ZN14LayoutRawBlockC2ENS_4KindEi(ptr noundef nonnull align 8 dereferenceable(37) %0, i32 noundef %1, i32 noundef %2) unnamed_addr #1 align 2 {
  %4 = alloca ptr, align 8
  %5 = alloca i32, align 4
  %6 = alloca i32, align 4
  store ptr %0, ptr %4, align 8
  store i32 %1, ptr %5, align 4
  store i32 %2, ptr %6, align 4
  %7 = load ptr, ptr %4, align 8
  %8 = getelementptr inbounds %class.LayoutRawBlock, ptr %7, i32 0, i32 0
  store ptr null, ptr %8, align 8
  %9 = getelementptr inbounds %class.LayoutRawBlock, ptr %7, i32 0, i32 1
  store ptr null, ptr %9, align 8
  %10 = getelementptr inbounds %class.LayoutRawBlock, ptr %7, i32 0, i32 2
  %11 = load i32, ptr %5, align 4
  store i32 %11, ptr %10, align 8
  %12 = getelementptr inbounds %class.LayoutRawBlock, ptr %7, i32 0, i32 3
  store i32 -1, ptr %12, align 4
  %13 = getelementptr inbounds %class.LayoutRawBlock, ptr %7, i32 0, i32 4
  store i32 1, ptr %13, align 8
  %14 = getelementptr inbounds %class.LayoutRawBlock, ptr %7, i32 0, i32 5
  %15 = load i32, ptr %6, align 4
  store i32 %15, ptr %14, align 4
  %16 = getelementptr inbounds %class.LayoutRawBlock, ptr %7, i32 0, i32 6
  store i32 -1, ptr %16, align 8
  %17 = getelementptr inbounds %class.LayoutRawBlock, ptr %7, i32 0, i32 7
  store i8 0, ptr %17, align 4
  ret void
}