; Function Attrs: mustprogress nofree norecurse nosync nounwind willreturn memory(argmem: write) uwtable
define hidden void @_ZN14LayoutRawBlockC2ENS_4KindEi(ptr nocapture noundef nonnull writeonly align 8 dereferenceable(37) %0, i32 noundef %1, i32 noundef %2) unnamed_addr #0 align 2 {
  %4 = getelementptr inbounds i8, ptr %0, i64 16
  tail call void @llvm.memset.p0.i64(ptr noundef nonnull align 8 dereferenceable(16) %0, i8 0, i64 16, i1 false)
  store i32 %1, ptr %4, align 8
  %5 = getelementptr inbounds i8, ptr %0, i64 20
  store i32 -1, ptr %5, align 4
  %6 = getelementptr inbounds i8, ptr %0, i64 24
  store i32 1, ptr %6, align 8
  %7 = getelementptr inbounds i8, ptr %0, i64 28
  store i32 %2, ptr %7, align 4
  %8 = getelementptr inbounds i8, ptr %0, i64 32
  store i32 -1, ptr %8, align 8
  %9 = getelementptr inbounds i8, ptr %0, i64 36
  store i8 0, ptr %9, align 4
  ret void
}